; Function Attrs: mustprogress uwtable
define void @_Z22dd_move_x_and_v_vsitesRK12gmx_domdec_tPA3_KfN3gmx8ArrayRefINS5_11BasicVectorIfEEEES9_(ptr noundef nonnull align 8 dereferenceable(1072) %0, ptr noundef %1, ptr %2, ptr readnone captures(none) %3, ptr %4, ptr readnone captures(none) %5) local_unnamed_addr #0 {
  %7 = getelementptr inbounds nuw i8, ptr %0, i64 824
  %8 = load ptr, ptr %7, align 8, !tbaa !4
  %.not = icmp eq ptr %8, null
  br i1 %.not, label %10, label %9

9:                                                ; preds = %6
  tail call void @_Z16dd_move_x_specatPK12gmx_domdec_tP24gmx_domdec_specat_comm_tPA3_KfPN3gmx11BasicVectorIfEESA_b(ptr noundef nonnull %0, ptr noundef nonnull %8, ptr noundef %1, ptr noundef %2, ptr noundef %4, i1 noundef zeroext false)
  br label %10

10:                                               ; preds = %9, %6
  ret void
}